target datalayout = "e-m:e-p270:32:32-p271:32:32-p272:64:64-i64:64-i128:128-f80:128-n8:16:32:64-S128"
target triple = "x86_64-pc-linux-gnu"

%struct.expert_field = type { i32, i32 }
%struct._proto_node = type { ptr, ptr, ptr, ptr, ptr, ptr, ptr }
%struct.field_info = type { ptr, i32, i32, i32, i32, i32, i32, ptr, ptr, ptr, i32, i32 }

@hf_nas_eps_spare_bits = internal global i32 0, align 4
@hf_nas_eps_emm_tai_tac = internal global i32 0, align 4
@ei_nas_eps_extraneous_data = internal global %struct.expert_field zeroinitializer, align 4
@hf_nas_eps_emm_tai_tol = internal global i32 0, align 4
@hf_nas_eps_emm_tai_n_elem = internal global i32 0, align 4
@ei_nas_eps_unknown_type_of_list = internal global %struct.expert_field zeroinitializer, align 4
@ei_nas_eps_wrong_nb_of_elems = internal global %struct.expert_field zeroinitializer, align 4
@.str.952 = private unnamed_addr constant [1 x i8] zeroinitializer, align 1
@.str.973 = private unnamed_addr constant [21 x i8] c" [+1 = %u element%s]\00", align 1
@.str.974 = private unnamed_addr constant [2 x i8] c"s\00", align 1

; Function Attrs: inlinehint nounwind null_pointer_is_valid sspstrong uwtable
define internal void @proto_item_set_generated(ptr noundef %0) #4 {
  %2 = alloca ptr, align 8
  store ptr %0, ptr %2, align 8
  %3 = load ptr, ptr %2, align 8
  %4 = icmp ne ptr %3, null
  br i1 %4, label %5, label %24

5:                                                ; preds = %1
  br label %6

6:                                                ; preds = %5
  %7 = load ptr, ptr %2, align 8
  %8 = getelementptr inbounds nuw %struct._proto_node, ptr %7, i32 0, i32 5
  %9 = load ptr, ptr %8, align 8
  %10 = icmp ne ptr %9, null
  br i1 %10, label %11, label %22

11:                                               ; preds = %6
  %12 = load ptr, ptr %2, align 8
  %13 = getelementptr inbounds nuw %struct._proto_node, ptr %12, i32 0, i32 5
  %14 = load ptr, ptr %13, align 8
  %15 = getelementptr inbounds nuw %struct.field_info, ptr %14, i32 0, i32 6
  %16 = load i32, ptr %15, align 4
  %17 = or i32 %16, 2
  %18 = load ptr, ptr %2, align 8
  %19 = getelementptr inbounds nuw %struct._proto_node, ptr %18, i32 0, i32 5
  %20 = load ptr, ptr %19, align 8
  %21 = getelementptr inbounds nuw %struct.field_info, ptr %20, i32 0, i32 6
  store i32 %17, ptr %21, align 4
  br label %22

22:                                               ; preds = %11, %6
  br label %23

23:                                               ; preds = %22
  br label %24

24:                                               ; preds = %23, %1
  ret void
}

; Function Attrs: null_pointer_is_valid sspstrong uwtable
define internal zeroext i16 @de_emm_trac_area_id_lst(ptr noundef %0, ptr noundef %1, ptr noundef %2, i32 noundef %3, i32 noundef %4, ptr noundef %5, i32 noundef %6) #1 {
  %8 = alloca i16, align 2
  %9 = alloca ptr, align 8
  %10 = alloca ptr, align 8
  %11 = alloca ptr, align 8
  %12 = alloca i32, align 4
  %13 = alloca i32, align 4
  %14 = alloca ptr, align 8
  %15 = alloca i32, align 4
  %16 = alloca ptr, align 8
  %17 = alloca i32, align 4
  %18 = alloca i32, align 4
  %19 = alloca i8, align 1
  %20 = alloca i8, align 1
  %21 = alloca i8, align 1
  %22 = alloca i32, align 4
  %23 = alloca ptr, align 8
  %24 = alloca i32, align 4
  store ptr %0, ptr %9, align 8
  store ptr %1, ptr %10, align 8
  store ptr %2, ptr %11, align 8
  store i32 %3, ptr %12, align 4
  store i32 %4, ptr %13, align 4
  store ptr %5, ptr %14, align 8
  store i32 %6, ptr %15, align 4
  call void @llvm.lifetime.start.p0(i64 8, ptr %16) #10
  call void @llvm.lifetime.start.p0(i64 4, ptr %17) #10
  call void @llvm.lifetime.start.p0(i64 4, ptr %18) #10
  call void @llvm.lifetime.start.p0(i64 1, ptr %19) #10
  call void @llvm.lifetime.start.p0(i64 1, ptr %20) #10
  call void @llvm.lifetime.start.p0(i64 1, ptr %21) #10
  call void @llvm.lifetime.start.p0(i64 4, ptr %22) #10
  call void @llvm.lifetime.start.p0(i64 8, ptr %23) #10
  %25 = load i32, ptr %12, align 4
  store i32 %25, ptr %17, align 4
  br label %26

26:                                               ; preds = %244, %7
  %27 = load i32, ptr %17, align 4
  %28 = load i32, ptr %12, align 4
  %29 = sub i32 %27, %28
  %30 = load i32, ptr %13, align 4
  %31 = icmp ult i32 %29, %30
  br i1 %31, label %32, label %245

32:                                               ; preds = %26
  %33 = load ptr, ptr %10, align 8
  %34 = load i32, ptr @hf_nas_eps_spare_bits, align 4
  %35 = load ptr, ptr %9, align 8
  %36 = load i32, ptr %17, align 4
  %37 = shl i32 %36, 3
  %38 = call ptr @proto_tree_add_bits_item(ptr noundef %33, i32 noundef %34, ptr noundef %35, i32 noundef %37, i32 noundef 1, i32 noundef 0)
  %39 = load ptr, ptr %10, align 8
  %40 = load i32, ptr @hf_nas_eps_emm_tai_tol, align 4
  %41 = load ptr, ptr %9, align 8
  %42 = load i32, ptr %17, align 4
  %43 = call ptr @proto_tree_add_item(ptr noundef %39, i32 noundef %40, ptr noundef %41, i32 noundef %42, i32 noundef 1, i32 noundef 0)
  %44 = load ptr, ptr %9, align 8
  %45 = load i32, ptr %17, align 4
  %46 = call zeroext i8 @tvb_get_uint8(ptr noundef %44, i32 noundef %45)
  %47 = zext i8 %46 to i32
  %48 = and i32 %47, 127
  %49 = trunc i32 %48 to i8
  store i8 %49, ptr %19, align 1
  %50 = load i8, ptr %19, align 1
  %51 = zext i8 %50 to i32
  %52 = ashr i32 %51, 5
  %53 = trunc i32 %52 to i8
  store i8 %53, ptr %20, align 1
  %54 = load i8, ptr %19, align 1
  %55 = zext i8 %54 to i32
  %56 = and i32 %55, 31
  %57 = add i32 %56, 1
  %58 = trunc i32 %57 to i8
  store i8 %58, ptr %21, align 1
  %59 = load ptr, ptr %10, align 8
  %60 = load i32, ptr @hf_nas_eps_emm_tai_n_elem, align 4
  %61 = load ptr, ptr %9, align 8
  %62 = load i32, ptr %17, align 4
  %63 = call ptr @proto_tree_add_item(ptr noundef %59, i32 noundef %60, ptr noundef %61, i32 noundef %62, i32 noundef 1, i32 noundef 0)
  store ptr %63, ptr %16, align 8
  %64 = load i8, ptr %21, align 1
  %65 = zext i8 %64 to i32
  %66 = icmp slt i32 %65, 16
  br i1 %66, label %67, label %75

67:                                               ; preds = %32
  %68 = load ptr, ptr %16, align 8
  %69 = load i8, ptr %21, align 1
  %70 = zext i8 %69 to i32
  %71 = load i8, ptr %21, align 1
  %72 = zext i8 %71 to i32
  %73 = icmp eq i32 %72, 1
  %74 = select i1 %73, ptr @.str.952, ptr @.str.974
  call void (ptr, ptr, ...) @proto_item_append_text(ptr noundef %68, ptr noundef @.str.973, i32 noundef %70, ptr noundef %74)
  br label %76

75:                                               ; preds = %32
  store i8 16, ptr %21, align 1
  br label %76

76:                                               ; preds = %75, %67
  %77 = load i32, ptr %17, align 4
  %78 = add i32 %77, 1
  store i32 %78, ptr %17, align 4
  %79 = load i8, ptr %20, align 1
  %80 = zext i8 %79 to i32
  %81 = icmp sgt i32 %80, 2
  br i1 %81, label %82, label %95

82:                                               ; preds = %76
  %83 = load ptr, ptr %10, align 8
  %84 = load ptr, ptr %11, align 8
  %85 = load ptr, ptr %9, align 8
  %86 = load i32, ptr %17, align 4
  %87 = load i32, ptr %13, align 4
  %88 = load i32, ptr %17, align 4
  %89 = load i32, ptr %12, align 4
  %90 = sub i32 %88, %89
  %91 = sub i32 %87, %90
  %92 = call ptr @proto_tree_add_expert(ptr noundef %83, ptr noundef %84, ptr noundef @ei_nas_eps_unknown_type_of_list, ptr noundef %85, i32 noundef %86, i32 noundef %91)
  %93 = load i32, ptr %13, align 4
  %94 = trunc i32 %93 to i16
  store i16 %94, ptr %8, align 2
  store i32 1, ptr %24, align 4
  br label %250

95:                                               ; preds = %76
  %96 = load i8, ptr %20, align 1
  %97 = zext i8 %96 to i32
  switch i32 %97, label %216 [
    i32 0, label %98
    i32 1, label %141
    i32 2, label %173
  ]

98:                                               ; preds = %95
  %99 = load ptr, ptr %9, align 8
  %100 = load ptr, ptr %11, align 8
  %101 = load ptr, ptr %10, align 8
  %102 = load i32, ptr %17, align 4
  %103 = call i32 @dissect_e212_mcc_mnc(ptr noundef %99, ptr noundef %100, ptr noundef %101, i32 noundef %102, i32 noundef 6, i1 noundef zeroext true)
  store i32 %103, ptr %17, align 4
  %104 = load i32, ptr %13, align 4
  %105 = load i8, ptr %21, align 1
  %106 = zext i8 %105 to i32
  %107 = mul i32 %106, 2
  %108 = add i32 4, %107
  %109 = icmp ult i32 %104, %108
  br i1 %109, label %110, label %123

110:                                              ; preds = %98
  %111 = load ptr, ptr %10, align 8
  %112 = load ptr, ptr %11, align 8
  %113 = load ptr, ptr %9, align 8
  %114 = load i32, ptr %17, align 4
  %115 = load i32, ptr %13, align 4
  %116 = load i32, ptr %17, align 4
  %117 = load i32, ptr %12, align 4
  %118 = sub i32 %116, %117
  %119 = sub i32 %115, %118
  %120 = call ptr @proto_tree_add_expert(ptr noundef %111, ptr noundef %112, ptr noundef @ei_nas_eps_wrong_nb_of_elems, ptr noundef %113, i32 noundef %114, i32 noundef %119)
  %121 = load i32, ptr %13, align 4
  %122 = trunc i32 %121 to i16
  store i16 %122, ptr %8, align 2
  store i32 1, ptr %24, align 4
  br label %250

123:                                              ; preds = %98
  store i32 0, ptr %22, align 4
  br label %124

124:                                              ; preds = %135, %123
  %125 = load i32, ptr %22, align 4
  %126 = load i8, ptr %21, align 1
  %127 = zext i8 %126 to i32
  %128 = icmp slt i32 %125, %127
  br i1 %128, label %129, label %140

129:                                              ; preds = %124
  %130 = load ptr, ptr %10, align 8
  %131 = load i32, ptr @hf_nas_eps_emm_tai_tac, align 4
  %132 = load ptr, ptr %9, align 8
  %133 = load i32, ptr %17, align 4
  %134 = call ptr @proto_tree_add_item(ptr noundef %130, i32 noundef %131, ptr noundef %132, i32 noundef %133, i32 noundef 2, i32 noundef 0)
  br label %135

135:                                              ; preds = %129
  %136 = load i32, ptr %22, align 4
  %137 = add i32 %136, 1
  store i32 %137, ptr %22, align 4
  %138 = load i32, ptr %17, align 4
  %139 = add i32 %138, 2
  store i32 %139, ptr %17, align 4
  br label %124, !llvm.loop !8

140:                                              ; preds = %124
  br label %244

141:                                              ; preds = %95
  %142 = load ptr, ptr %9, align 8
  %143 = load ptr, ptr %11, align 8
  %144 = load ptr, ptr %10, align 8
  %145 = load i32, ptr %17, align 4
  %146 = call i32 @dissect_e212_mcc_mnc(ptr noundef %142, ptr noundef %143, ptr noundef %144, i32 noundef %145, i32 noundef 6, i1 noundef zeroext true)
  store i32 %146, ptr %17, align 4
  %147 = load ptr, ptr %10, align 8
  %148 = load i32, ptr @hf_nas_eps_emm_tai_tac, align 4
  %149 = load ptr, ptr %9, align 8
  %150 = load i32, ptr %17, align 4
  %151 = call ptr @proto_tree_add_item_ret_uint(ptr noundef %147, i32 noundef %148, ptr noundef %149, i32 noundef %150, i32 noundef 2, i32 noundef 0, ptr noundef %18)
  %152 = load i32, ptr %17, align 4
  %153 = add i32 %152, 2
  store i32 %153, ptr %17, align 4
  store i32 1, ptr %22, align 4
  br label %154

154:                                              ; preds = %169, %141
  %155 = load i32, ptr %22, align 4
  %156 = load i8, ptr %21, align 1
  %157 = zext i8 %156 to i32
  %158 = icmp slt i32 %155, %157
  br i1 %158, label %159, label %172

159:                                              ; preds = %154
  %160 = load ptr, ptr %10, align 8
  %161 = load i32, ptr @hf_nas_eps_emm_tai_tac, align 4
  %162 = load ptr, ptr %9, align 8
  %163 = load i32, ptr %17, align 4
  %164 = load i32, ptr %18, align 4
  %165 = load i32, ptr %22, align 4
  %166 = add i32 %164, %165
  %167 = call ptr @proto_tree_add_uint(ptr noundef %160, i32 noundef %161, ptr noundef %162, i32 noundef %163, i32 noundef 0, i32 noundef %166)
  store ptr %167, ptr %23, align 8
  %168 = load ptr, ptr %23, align 8
  call void @proto_item_set_generated(ptr noundef %168)
  br label %169

169:                                              ; preds = %159
  %170 = load i32, ptr %22, align 4
  %171 = add i32 %170, 1
  store i32 %171, ptr %22, align 4
  br label %154, !llvm.loop !9

172:                                              ; preds = %154
  br label %244

173:                                              ; preds = %95
  %174 = load i32, ptr %13, align 4
  %175 = load i8, ptr %21, align 1
  %176 = zext i8 %175 to i32
  %177 = mul i32 %176, 5
  %178 = add i32 1, %177
  %179 = icmp ult i32 %174, %178
  br i1 %179, label %180, label %193

180:                                              ; preds = %173
  %181 = load ptr, ptr %10, align 8
  %182 = load ptr, ptr %11, align 8
  %183 = load ptr, ptr %9, align 8
  %184 = load i32, ptr %17, align 4
  %185 = load i32, ptr %13, align 4
  %186 = load i32, ptr %17, align 4
  %187 = load i32, ptr %12, align 4
  %188 = sub i32 %186, %187
  %189 = sub i32 %185, %188
  %190 = call ptr @proto_tree_add_expert(ptr noundef %181, ptr noundef %182, ptr noundef @ei_nas_eps_wrong_nb_of_elems, ptr noundef %183, i32 noundef %184, i32 noundef %189)
  %191 = load i32, ptr %13, align 4
  %192 = trunc i32 %191 to i16
  store i16 %192, ptr %8, align 2
  store i32 1, ptr %24, align 4
  br label %250

193:                                              ; preds = %173
  store i32 0, ptr %22, align 4
  br label %194

194:                                              ; preds = %212, %193
  %195 = load i32, ptr %22, align 4
  %196 = load i8, ptr %21, align 1
  %197 = zext i8 %196 to i32
  %198 = icmp slt i32 %195, %197
  br i1 %198, label %199, label %215

199:                                              ; preds = %194
  %200 = load ptr, ptr %9, align 8
  %201 = load ptr, ptr %11, align 8
  %202 = load ptr, ptr %10, align 8
  %203 = load i32, ptr %17, align 4
  %204 = call i32 @dissect_e212_mcc_mnc(ptr noundef %200, ptr noundef %201, ptr noundef %202, i32 noundef %203, i32 noundef 6, i1 noundef zeroext true)
  store i32 %204, ptr %17, align 4
  %205 = load ptr, ptr %10, align 8
  %206 = load i32, ptr @hf_nas_eps_emm_tai_tac, align 4
  %207 = load ptr, ptr %9, align 8
  %208 = load i32, ptr %17, align 4
  %209 = call ptr @proto_tree_add_item(ptr noundef %205, i32 noundef %206, ptr noundef %207, i32 noundef %208, i32 noundef 2, i32 noundef 0)
  %210 = load i32, ptr %17, align 4
  %211 = add i32 %210, 2
  store i32 %211, ptr %17, align 4
  br label %212

212:                                              ; preds = %199
  %213 = load i32, ptr %22, align 4
  %214 = add i32 %213, 1
  store i32 %214, ptr %22, align 4
  br label %194, !llvm.loop !10

215:                                              ; preds = %194
  br label %244

216:                                              ; preds = %95
  %217 = load i32, ptr %13, align 4
  %218 = load i32, ptr %17, align 4
  %219 = load i32, ptr %12, align 4
  %220 = sub i32 %218, %219
  %221 = icmp ugt i32 %217, %220
  br i1 %221, label %222, label %240

222:                                              ; preds = %216
  %223 = load ptr, ptr %10, align 8
  %224 = load ptr, ptr %11, align 8
  %225 = load ptr, ptr %9, align 8
  %226 = load i32, ptr %17, align 4
  %227 = load i32, ptr %13, align 4
  %228 = load i32, ptr %17, align 4
  %229 = load i32, ptr %12, align 4
  %230 = sub i32 %228, %229
  %231 = sub i32 %227, %230
  %232 = call ptr @proto_tree_add_expert(ptr noundef %223, ptr noundef %224, ptr noundef @ei_nas_eps_extraneous_data, ptr noundef %225, i32 noundef %226, i32 noundef %231)
  %233 = load i32, ptr %13, align 4
  %234 = load i32, ptr %17, align 4
  %235 = load i32, ptr %12, align 4
  %236 = sub i32 %234, %235
  %237 = sub i32 %233, %236
  %238 = load i32, ptr %17, align 4
  %239 = add i32 %238, %237
  store i32 %239, ptr %17, align 4
  br label %240

240:                                              ; preds = %222, %216
  %241 = load i32, ptr %12, align 4
  %242 = load i32, ptr %13, align 4
  %243 = add i32 %241, %242
  store i32 %243, ptr %17, align 4
  br label %244

244:                                              ; preds = %240, %215, %172, %140
  br label %26, !llvm.loop !11

245:                                              ; preds = %26
  %246 = load i32, ptr %17, align 4
  %247 = load i32, ptr %12, align 4
  %248 = sub i32 %246, %247
  %249 = trunc i32 %248 to i16
  store i16 %249, ptr %8, align 2
  store i32 1, ptr %24, align 4
  br label %250

250:                                              ; preds = %245, %180, %110, %82
  call void @llvm.lifetime.end.p0(i64 8, ptr %23) #10
  call void @llvm.lifetime.end.p0(i64 4, ptr %22) #10
  call void @llvm.lifetime.end.p0(i64 1, ptr %21) #10
  call void @llvm.lifetime.end.p0(i64 1, ptr %20) #10
  call void @llvm.lifetime.end.p0(i64 1, ptr %19) #10
  call void @llvm.lifetime.end.p0(i64 4, ptr %18) #10
  call void @llvm.lifetime.end.p0(i64 4, ptr %17) #10
  call void @llvm.lifetime.end.p0(i64 8, ptr %16) #10
  %251 = load i16, ptr %8, align 2
  ret i16 %251
}