; Function Attrs: null_pointer_is_valid sspstrong uwtable
define internal noundef zeroext i16 @de_emm_trac_area_id_lst(ptr noundef %0, ptr noundef %1, ptr noundef %2, i32 noundef %3, i32 noundef %4, ptr readnone captures(none) %5, i32 %6) #1 {
  %8 = alloca i32, align 4
  call void @llvm.lifetime.start.p0(i64 4, ptr nonnull %8) #10
  %.not148 = icmp eq i32 %4, 0
  br i1 %.not148, label %.loopexit125, label %.lr.ph147

.lr.ph147:                                        ; preds = %7, %.loopexit
  %.0110146 = phi i32 [ %.2112, %.loopexit ], [ %3, %7 ]
  %9 = load i32, ptr @hf_nas_eps_spare_bits, align 4
  %10 = shl i32 %.0110146, 3
  %11 = call ptr @proto_tree_add_bits_item(ptr noundef %1, i32 noundef %9, ptr noundef %0, i32 noundef %10, i32 noundef 1, i32 noundef 0)
  %12 = load i32, ptr @hf_nas_eps_emm_tai_tol, align 4
  %13 = call ptr @proto_tree_add_item(ptr noundef %1, i32 noundef %12, ptr noundef %0, i32 noundef %.0110146, i32 noundef 1, i32 noundef 0)
  %14 = call zeroext i8 @tvb_get_uint8(ptr noundef %0, i32 noundef %.0110146)
  %15 = lshr i8 %14, 5
  %16 = and i8 %15, 3
  %17 = and i8 %14, 31
  %18 = load i32, ptr @hf_nas_eps_emm_tai_n_elem, align 4
  %19 = call ptr @proto_tree_add_item(ptr noundef %1, i32 noundef %18, ptr noundef %0, i32 noundef %.0110146, i32 noundef 1, i32 noundef 0)
  %20 = icmp samesign ult i8 %17, 15
  br i1 %20, label %21, label %25

21:                                               ; preds = %.lr.ph147
  %narrow = add nuw nsw i8 %17, 1
  %22 = zext nneg i8 %narrow to i32
  %23 = icmp eq i8 %17, 0
  %24 = select i1 %23, ptr @.str.952, ptr @.str.974
  call void (ptr, ptr, ...) @proto_item_append_text(ptr noundef %19, ptr noundef nonnull @.str.973, i32 noundef %22, ptr noundef nonnull %24)
  br label %25

25:                                               ; preds = %.lr.ph147, %21
  %.0109 = phi i32 [ %22, %21 ], [ 16, %.lr.ph147 ]
  %26 = add i32 %.0110146, 1
  switch i8 %16, label %default.unreachable165 [
    i8 3, label %27
    i8 0, label %30
    i8 1, label %42
    i8 2, label %60
  ]

27:                                               ; preds = %25
  %.neg120.le144 = xor i32 %.0110146, -1
  %.neg119 = add i32 %4, %3
  %28 = add i32 %.neg119, %.neg120.le144
  %29 = call ptr @proto_tree_add_expert(ptr noundef %1, ptr noundef %2, ptr noundef nonnull @ei_nas_eps_unknown_type_of_list, ptr noundef %0, i32 noundef %26, i32 noundef %28)
  br label %.loopexit125

30:                                               ; preds = %25
  %31 = call i32 @dissect_e212_mcc_mnc(ptr noundef %0, ptr noundef %2, ptr noundef %1, i32 noundef %26, i32 noundef 6, i1 noundef zeroext true)
  %32 = shl nuw nsw i32 %.0109, 1
  %33 = add nuw nsw i32 %32, 4
  %34 = icmp ult i32 %4, %33
  br i1 %34, label %35, label %.preheader

35:                                               ; preds = %30
  %.neg118 = add i32 %4, %3
  %36 = sub i32 %.neg118, %31
  %37 = call ptr @proto_tree_add_expert(ptr noundef %1, ptr noundef %2, ptr noundef nonnull @ei_nas_eps_wrong_nb_of_elems, ptr noundef %0, i32 noundef %31, i32 noundef %36)
  br label %.loopexit125

.preheader:                                       ; preds = %30, %.preheader
  %.0108142 = phi i32 [ %40, %.preheader ], [ 0, %30 ]
  %.1111141 = phi i32 [ %41, %.preheader ], [ %31, %30 ]
  %38 = load i32, ptr @hf_nas_eps_emm_tai_tac, align 4
  %39 = call ptr @proto_tree_add_item(ptr noundef %1, i32 noundef %38, ptr noundef %0, i32 noundef %.1111141, i32 noundef 2, i32 noundef 0)
  %40 = add nuw nsw i32 %.0108142, 1
  %41 = add i32 %.1111141, 2
  %exitcond164.not = icmp eq i32 %40, %.0109
  br i1 %exitcond164.not, label %.loopexit, label %.preheader, !llvm.loop !8

42:                                               ; preds = %25
  %43 = call i32 @dissect_e212_mcc_mnc(ptr noundef %0, ptr noundef %2, ptr noundef %1, i32 noundef %26, i32 noundef 6, i1 noundef zeroext true)
  %44 = load i32, ptr @hf_nas_eps_emm_tai_tac, align 4
  %45 = call ptr @proto_tree_add_item_ret_uint(ptr noundef %1, i32 noundef %44, ptr noundef %0, i32 noundef %43, i32 noundef 2, i32 noundef 0, ptr noundef nonnull %8)
  %46 = add i32 %43, 2
  %47 = icmp samesign ugt i32 %.0109, 1
  br i1 %47, label %.lr.ph, label %.loopexit

.lr.ph:                                           ; preds = %42, %proto_item_set_generated.exit
  %.1140 = phi i32 [ %59, %proto_item_set_generated.exit ], [ 1, %42 ]
  %48 = load i32, ptr @hf_nas_eps_emm_tai_tac, align 4
  %49 = load i32, ptr %8, align 4
  %50 = add i32 %49, %.1140
  %51 = call ptr @proto_tree_add_uint(ptr noundef %1, i32 noundef %48, ptr noundef %0, i32 noundef %46, i32 noundef 0, i32 noundef %50)
  %.not.i = icmp eq ptr %51, null
  br i1 %.not.i, label %proto_item_set_generated.exit, label %52

52:                                               ; preds = %.lr.ph
  %53 = getelementptr inbounds nuw i8, ptr %51, i64 40
  %54 = load ptr, ptr %53, align 8
  %.not5.i = icmp eq ptr %54, null
  br i1 %.not5.i, label %proto_item_set_generated.exit, label %55

55:                                               ; preds = %52
  %56 = getelementptr inbounds nuw i8, ptr %54, i64 28
  %57 = load i32, ptr %56, align 4
  %58 = or i32 %57, 2
  store i32 %58, ptr %56, align 4
  br label %proto_item_set_generated.exit

proto_item_set_generated.exit:                    ; preds = %.lr.ph, %52, %55
  %59 = add nuw nsw i32 %.1140, 1
  %exitcond163.not = icmp eq i32 %59, %.0109
  br i1 %exitcond163.not, label %.loopexit, label %.lr.ph, !llvm.loop !9

60:                                               ; preds = %25
  %61 = mul nuw nsw i32 %.0109, 5
  %.not = icmp ugt i32 %4, %61
  br i1 %.not, label %.preheader123, label %62

62:                                               ; preds = %60
  %.neg120.le = xor i32 %.0110146, -1
  %.neg = add i32 %4, %3
  %63 = add i32 %.neg, %.neg120.le
  %64 = call ptr @proto_tree_add_expert(ptr noundef %1, ptr noundef %2, ptr noundef nonnull @ei_nas_eps_wrong_nb_of_elems, ptr noundef %0, i32 noundef %26, i32 noundef %63)
  br label %.loopexit125

.preheader123:                                    ; preds = %60, %.preheader123
  %.2139 = phi i32 [ %69, %.preheader123 ], [ 0, %60 ]
  %.3138 = phi i32 [ %68, %.preheader123 ], [ %26, %60 ]
  %65 = call i32 @dissect_e212_mcc_mnc(ptr noundef %0, ptr noundef %2, ptr noundef %1, i32 noundef %.3138, i32 noundef 6, i1 noundef zeroext true)
  %66 = load i32, ptr @hf_nas_eps_emm_tai_tac, align 4
  %67 = call ptr @proto_tree_add_item(ptr noundef %1, i32 noundef %66, ptr noundef %0, i32 noundef %65, i32 noundef 2, i32 noundef 0)
  %68 = add i32 %65, 2
  %69 = add nuw nsw i32 %.2139, 1
  %exitcond.not = icmp eq i32 %69, %.0109
  br i1 %exitcond.not, label %.loopexit, label %.preheader123, !llvm.loop !10

default.unreachable165:                           ; preds = %25
  unreachable

.loopexit:                                        ; preds = %.preheader123, %proto_item_set_generated.exit, %.preheader, %42
  %.2112 = phi i32 [ %46, %42 ], [ %41, %.preheader ], [ %46, %proto_item_set_generated.exit ], [ %68, %.preheader123 ]
  %70 = sub i32 %.2112, %3
  %71 = icmp ult i32 %70, %4
  br i1 %71, label %.lr.ph147, label %.loopexit125, !llvm.loop !11

.loopexit125:                                     ; preds = %.loopexit, %7, %62, %35, %27
  %.0.in = phi i32 [ %4, %27 ], [ %4, %62 ], [ %4, %35 ], [ 0, %7 ], [ %70, %.loopexit ]
  %.0 = trunc i32 %.0.in to i16
  call void @llvm.lifetime.end.p0(i64 4, ptr nonnull %8) #10
  ret i16 %.0
}